target datalayout = "e-m:e-p270:32:32-p271:32:32-p272:64:64-i64:64-i128:128-f80:128-n8:16:32:64-S128"
target triple = "x86_64-pc-linux-gnu"

%struct.__loadu_ps = type { <4 x float> }
%struct.__storeu_ps = type { <4 x float> }
%struct.stbir__contributors = type { i32, i32 }
%struct.__mm_storel_epi64_struct = type { i64 }
%struct.__mm_store_ss_struct = type { float }

; Function Attrs: alwaysinline nounwind uwtable
define available_externally void @_mm_store_ss(ptr noundef %0, <4 x float> noundef %1) #2 {
  %3 = alloca ptr, align 8
  %4 = alloca <4 x float>, align 16
  store ptr %0, ptr %3, align 8, !tbaa !21
  store <4 x float> %1, ptr %4, align 16, !tbaa !12
  %5 = load <4 x float>, ptr %4, align 16, !tbaa !12
  %6 = extractelement <4 x float> %5, i32 0
  %7 = load ptr, ptr %3, align 8, !tbaa !21
  %8 = getelementptr inbounds nuw %struct.__mm_store_ss_struct, ptr %7, i32 0, i32 0
  store float %6, ptr %8, align 1, !tbaa !12
  ret void
}

; Function Attrs: alwaysinline nounwind uwtable
define available_externally void @_mm_storel_epi64(ptr noundef %0, <2 x i64> noundef %1) #2 {
  %3 = alloca ptr, align 8
  %4 = alloca <2 x i64>, align 16
  store ptr %0, ptr %3, align 8, !tbaa !3
  store <2 x i64> %1, ptr %4, align 16, !tbaa !12
  %5 = load <2 x i64>, ptr %4, align 16, !tbaa !12
  %6 = extractelement <2 x i64> %5, i32 0
  %7 = load ptr, ptr %3, align 8, !tbaa !3
  %8 = getelementptr inbounds nuw %struct.__mm_storel_epi64_struct, ptr %7, i32 0, i32 0
  store i64 %6, ptr %8, align 1, !tbaa !12
  ret void
}

; Function Attrs: alwaysinline nounwind uwtable
define available_externally void @_mm_storeu_ps(ptr noundef %0, <4 x float> noundef %1) #2 {
  %3 = alloca ptr, align 8
  %4 = alloca <4 x float>, align 16
  store ptr %0, ptr %3, align 8, !tbaa !21
  store <4 x float> %1, ptr %4, align 16, !tbaa !12
  %5 = load <4 x float>, ptr %4, align 16, !tbaa !12
  %6 = load ptr, ptr %3, align 8, !tbaa !21
  %7 = getelementptr inbounds nuw %struct.__storeu_ps, ptr %6, i32 0, i32 0
  store <4 x float> %5, ptr %7, align 1, !tbaa !12
  ret void
}

; Function Attrs: alwaysinline nounwind uwtable
define available_externally <4 x float> @_mm_add_ps(<4 x float> noundef %0, <4 x float> noundef %1) #2 {
  %3 = alloca <4 x float>, align 16
  %4 = alloca <4 x float>, align 16
  store <4 x float> %0, ptr %3, align 16, !tbaa !12
  store <4 x float> %1, ptr %4, align 16, !tbaa !12
  %5 = load <4 x float>, ptr %3, align 16, !tbaa !12
  %6 = load <4 x float>, ptr %4, align 16, !tbaa !12
  %7 = fadd <4 x float> %5, %6
  ret <4 x float> %7
}

; Function Attrs: alwaysinline nounwind uwtable
define available_externally <4 x float> @_mm_mul_ps(<4 x float> noundef %0, <4 x float> noundef %1) #2 {
  %3 = alloca <4 x float>, align 16
  %4 = alloca <4 x float>, align 16
  store <4 x float> %0, ptr %3, align 16, !tbaa !12
  store <4 x float> %1, ptr %4, align 16, !tbaa !12
  %5 = load <4 x float>, ptr %3, align 16, !tbaa !12
  %6 = load <4 x float>, ptr %4, align 16, !tbaa !12
  %7 = fmul <4 x float> %5, %6
  ret <4 x float> %7
}

; Function Attrs: alwaysinline nounwind uwtable
define available_externally <4 x float> @_mm_castsi128_ps(<2 x i64> noundef %0) #2 {
  %2 = alloca <2 x i64>, align 16
  store <2 x i64> %0, ptr %2, align 16, !tbaa !12
  %3 = load <2 x i64>, ptr %2, align 16, !tbaa !12
  %4 = bitcast <2 x i64> %3 to <4 x float>
  ret <4 x float> %4
}

; Function Attrs: alwaysinline nounwind uwtable
define available_externally <2 x i64> @_mm_castps_si128(<4 x float> noundef %0) #2 {
  %2 = alloca <4 x float>, align 16
  store <4 x float> %0, ptr %2, align 16, !tbaa !12
  %3 = load <4 x float>, ptr %2, align 16, !tbaa !12
  %4 = bitcast <4 x float> %3 to <2 x i64>
  ret <2 x i64> %4
}

; Function Attrs: alwaysinline nounwind uwtable
define available_externally <4 x float> @_mm_loadu_ps(ptr noundef %0) #2 {
  %2 = alloca ptr, align 8
  store ptr %0, ptr %2, align 8, !tbaa !21
  %3 = load ptr, ptr %2, align 8, !tbaa !21
  %4 = getelementptr inbounds nuw %struct.__loadu_ps, ptr %3, i32 0, i32 0
  %5 = load <4 x float>, ptr %4, align 1, !tbaa !12
  ret <4 x float> %5
}

; Function Attrs: nounwind uwtable
define void @stbir__horizontal_gather_3_channels_with_4_coeffs(ptr noundef %0, i32 noundef %1, ptr noundef %2, ptr noundef %3, ptr noundef %4, i32 noundef %5) #0 {
  %7 = alloca ptr, align 8
  %8 = alloca i32, align 4
  %9 = alloca ptr, align 8
  %10 = alloca ptr, align 8
  %11 = alloca ptr, align 8
  %12 = alloca i32, align 4
  %13 = alloca ptr, align 8
  %14 = alloca ptr, align 8
  %15 = alloca ptr, align 8
  %16 = alloca ptr, align 8
  %17 = alloca <4 x float>, align 16
  %18 = alloca <4 x float>, align 16
  %19 = alloca <4 x float>, align 16
  %20 = alloca <4 x float>, align 16
  %21 = alloca <4 x float>, align 16
  %22 = alloca i32, align 4
  store ptr %0, ptr %7, align 8, !tbaa !21
  store i32 %1, ptr %8, align 4, !tbaa !26
  store ptr %2, ptr %9, align 8, !tbaa !21
  store ptr %3, ptr %10, align 8, !tbaa !3
  store ptr %4, ptr %11, align 8, !tbaa !21
  store i32 %5, ptr %12, align 4, !tbaa !26
  call void @llvm.lifetime.start.p0(i64 8, ptr %13) #12
  %23 = load ptr, ptr %7, align 8, !tbaa !21
  %24 = load i32, ptr %8, align 4, !tbaa !26
  %25 = mul i32 %24, 3
  %26 = zext i32 %25 to i64
  %27 = getelementptr inbounds nuw float, ptr %23, i64 %26
  store ptr %27, ptr %13, align 8, !tbaa !21
  call void @llvm.lifetime.start.p0(i64 8, ptr %14) #12
  %28 = load ptr, ptr %7, align 8, !tbaa !21
  store ptr %28, ptr %14, align 8, !tbaa !21
  br label %29

29:                                               ; preds = %136, %6
  call void @llvm.lifetime.start.p0(i64 8, ptr %15) #12
  %30 = load ptr, ptr %9, align 8, !tbaa !21
  %31 = load ptr, ptr %10, align 8, !tbaa !3
  %32 = getelementptr inbounds nuw %struct.stbir__contributors, ptr %31, i32 0, i32 0
  %33 = load i32, ptr %32, align 4, !tbaa !41
  %34 = mul nsw i32 %33, 3
  %35 = sext i32 %34 to i64
  %36 = getelementptr inbounds float, ptr %30, i64 %35
  store ptr %36, ptr %15, align 8, !tbaa !21
  call void @llvm.lifetime.start.p0(i64 8, ptr %16) #12
  %37 = load ptr, ptr %11, align 8, !tbaa !21
  store ptr %37, ptr %16, align 8, !tbaa !21
  call void @llvm.lifetime.start.p0(i64 16, ptr %17) #12
  call void @llvm.lifetime.start.p0(i64 16, ptr %18) #12
  call void @llvm.lifetime.start.p0(i64 16, ptr %19) #12
  call void @llvm.lifetime.start.p0(i64 16, ptr %20) #12
  call void @llvm.lifetime.start.p0(i64 16, ptr %21) #12
  %38 = load ptr, ptr %15, align 8, !tbaa !21
  call void asm sideeffect "", "r,~{dirflag},~{fpsr},~{flags}"(ptr %38) #12, !srcloc !637
  %39 = load ptr, ptr %16, align 8, !tbaa !21
  %40 = call <4 x float> @_mm_loadu_ps(ptr noundef %39)
  store <4 x float> %40, ptr %21, align 16, !tbaa !12
  %41 = load <4 x float>, ptr %21, align 16, !tbaa !12
  %42 = call <2 x i64> @_mm_castps_si128(<4 x float> noundef %41)
  %43 = bitcast <2 x i64> %42 to <4 x i32>
  %44 = shufflevector <4 x i32> %43, <4 x i32> poison, <4 x i32> <i32 0, i32 0, i32 0, i32 1>
  %45 = bitcast <4 x i32> %44 to <2 x i64>
  %46 = call <4 x float> @_mm_castsi128_ps(<2 x i64> noundef %45)
  store <4 x float> %46, ptr %20, align 16, !tbaa !12
  %47 = load <4 x float>, ptr %20, align 16, !tbaa !12
  %48 = load ptr, ptr %15, align 8, !tbaa !21
  %49 = call <4 x float> @_mm_loadu_ps(ptr noundef %48)
  %50 = call <4 x float> @_mm_mul_ps(<4 x float> noundef %47, <4 x float> noundef %49)
  store <4 x float> %50, ptr %17, align 16, !tbaa !12
  %51 = load <4 x float>, ptr %21, align 16, !tbaa !12
  %52 = call <2 x i64> @_mm_castps_si128(<4 x float> noundef %51)
  %53 = bitcast <2 x i64> %52 to <4 x i32>
  %54 = shufflevector <4 x i32> %53, <4 x i32> poison, <4 x i32> <i32 1, i32 1, i32 2, i32 2>
  %55 = bitcast <4 x i32> %54 to <2 x i64>
  %56 = call <4 x float> @_mm_castsi128_ps(<2 x i64> noundef %55)
  store <4 x float> %56, ptr %20, align 16, !tbaa !12
  %57 = load <4 x float>, ptr %20, align 16, !tbaa !12
  %58 = load ptr, ptr %15, align 8, !tbaa !21
  %59 = getelementptr inbounds float, ptr %58, i64 4
  %60 = call <4 x float> @_mm_loadu_ps(ptr noundef %59)
  %61 = call <4 x float> @_mm_mul_ps(<4 x float> noundef %57, <4 x float> noundef %60)
  store <4 x float> %61, ptr %18, align 16, !tbaa !12
  %62 = load <4 x float>, ptr %21, align 16, !tbaa !12
  %63 = call <2 x i64> @_mm_castps_si128(<4 x float> noundef %62)
  %64 = bitcast <2 x i64> %63 to <4 x i32>
  %65 = shufflevector <4 x i32> %64, <4 x i32> poison, <4 x i32> <i32 2, i32 3, i32 3, i32 3>
  %66 = bitcast <4 x i32> %65 to <2 x i64>
  %67 = call <4 x float> @_mm_castsi128_ps(<2 x i64> noundef %66)
  store <4 x float> %67, ptr %20, align 16, !tbaa !12
  %68 = load <4 x float>, ptr %20, align 16, !tbaa !12
  %69 = load ptr, ptr %15, align 8, !tbaa !21
  %70 = getelementptr inbounds float, ptr %69, i64 8
  %71 = call <4 x float> @_mm_loadu_ps(ptr noundef %70)
  %72 = call <4 x float> @_mm_mul_ps(<4 x float> noundef %68, <4 x float> noundef %71)
  store <4 x float> %72, ptr %19, align 16, !tbaa !12
  %73 = load <4 x float>, ptr %18, align 16, !tbaa !12
  %74 = load <4 x float>, ptr %17, align 16, !tbaa !12
  %75 = shufflevector <4 x float> %73, <4 x float> %74, <4 x i32> <i32 0, i32 1, i32 6, i32 7>
  %76 = call <2 x i64> @_mm_castps_si128(<4 x float> noundef %75)
  %77 = bitcast <2 x i64> %76 to <4 x i32>
  %78 = shufflevector <4 x i32> %77, <4 x i32> poison, <4 x i32> <i32 3, i32 0, i32 1, i32 2>
  %79 = bitcast <4 x i32> %78 to <2 x i64>
  %80 = call <4 x float> @_mm_castsi128_ps(<2 x i64> noundef %79)
  store <4 x float> %80, ptr %20, align 16, !tbaa !12
  %81 = load <4 x float>, ptr %19, align 16, !tbaa !12
  %82 = load <4 x float>, ptr %18, align 16, !tbaa !12
  %83 = shufflevector <4 x float> %81, <4 x float> %82, <4 x i32> <i32 0, i32 1, i32 6, i32 7>
  %84 = call <2 x i64> @_mm_castps_si128(<4 x float> noundef %83)
  %85 = bitcast <2 x i64> %84 to <4 x i32>
  %86 = shufflevector <4 x i32> %85, <4 x i32> poison, <4 x i32> <i32 2, i32 3, i32 0, i32 1>
  %87 = bitcast <4 x i32> %86 to <2 x i64>
  %88 = call <4 x float> @_mm_castsi128_ps(<2 x i64> noundef %87)
  store <4 x float> %88, ptr %21, align 16, !tbaa !12
  %89 = load <4 x float>, ptr %19, align 16, !tbaa !12
  %90 = call <2 x i64> @_mm_castps_si128(<4 x float> noundef %89)
  %91 = bitcast <2 x i64> %90 to <4 x i32>
  %92 = shufflevector <4 x i32> %91, <4 x i32> poison, <4 x i32> <i32 1, i32 2, i32 3, i32 0>
  %93 = bitcast <4 x i32> %92 to <2 x i64>
  %94 = call <4 x float> @_mm_castsi128_ps(<2 x i64> noundef %93)
  store <4 x float> %94, ptr %19, align 16, !tbaa !12
  %95 = load <4 x float>, ptr %17, align 16, !tbaa !12
  %96 = load <4 x float>, ptr %21, align 16, !tbaa !12
  %97 = call <4 x float> @_mm_add_ps(<4 x float> noundef %95, <4 x float> noundef %96)
  store <4 x float> %97, ptr %17, align 16, !tbaa !12
  %98 = load <4 x float>, ptr %20, align 16, !tbaa !12
  %99 = load <4 x float>, ptr %19, align 16, !tbaa !12
  %100 = call <4 x float> @_mm_add_ps(<4 x float> noundef %98, <4 x float> noundef %99)
  store <4 x float> %100, ptr %20, align 16, !tbaa !12
  %101 = load <4 x float>, ptr %17, align 16, !tbaa !12
  %102 = load <4 x float>, ptr %20, align 16, !tbaa !12
  %103 = call <4 x float> @_mm_add_ps(<4 x float> noundef %101, <4 x float> noundef %102)
  store <4 x float> %103, ptr %17, align 16, !tbaa !12
  %104 = load i32, ptr %12, align 4, !tbaa !26
  %105 = load ptr, ptr %11, align 8, !tbaa !21
  %106 = sext i32 %104 to i64
  %107 = getelementptr inbounds float, ptr %105, i64 %106
  store ptr %107, ptr %11, align 8, !tbaa !21
  %108 = load ptr, ptr %10, align 8, !tbaa !3
  %109 = getelementptr inbounds nuw %struct.stbir__contributors, ptr %108, i32 1
  store ptr %109, ptr %10, align 8, !tbaa !3
  %110 = load ptr, ptr %14, align 8, !tbaa !21
  %111 = getelementptr inbounds float, ptr %110, i64 3
  store ptr %111, ptr %14, align 8, !tbaa !21
  %112 = load ptr, ptr %14, align 8, !tbaa !21
  %113 = load ptr, ptr %13, align 8, !tbaa !21
  %114 = icmp ult ptr %112, %113
  br i1 %114, label %115, label %119

115:                                              ; preds = %29
  %116 = load ptr, ptr %14, align 8, !tbaa !21
  %117 = getelementptr inbounds float, ptr %116, i64 -3
  %118 = load <4 x float>, ptr %17, align 16, !tbaa !12
  call void @_mm_storeu_ps(ptr noundef %117, <4 x float> noundef %118)
  store i32 3, ptr %22, align 4
  br label %134

119:                                              ; preds = %29
  %120 = load <4 x float>, ptr %17, align 16, !tbaa !12
  %121 = call <2 x i64> @_mm_castps_si128(<4 x float> noundef %120)
  %122 = bitcast <2 x i64> %121 to <4 x i32>
  %123 = shufflevector <4 x i32> %122, <4 x i32> poison, <4 x i32> <i32 2, i32 3, i32 0, i32 1>
  %124 = bitcast <4 x i32> %123 to <2 x i64>
  %125 = call <4 x float> @_mm_castsi128_ps(<2 x i64> noundef %124)
  store <4 x float> %125, ptr %18, align 16, !tbaa !12
  %126 = load ptr, ptr %14, align 8, !tbaa !21
  %127 = getelementptr inbounds float, ptr %126, i64 -3
  %128 = load <4 x float>, ptr %17, align 16, !tbaa !12
  %129 = call <2 x i64> @_mm_castps_si128(<4 x float> noundef %128)
  call void @_mm_storel_epi64(ptr noundef %127, <2 x i64> noundef %129)
  %130 = load ptr, ptr %14, align 8, !tbaa !21
  %131 = getelementptr inbounds float, ptr %130, i64 2
  %132 = getelementptr inbounds float, ptr %131, i64 -3
  %133 = load <4 x float>, ptr %18, align 16, !tbaa !12
  call void @_mm_store_ss(ptr noundef %132, <4 x float> noundef %133)
  store i32 2, ptr %22, align 4
  br label %134

134:                                              ; preds = %119, %115
  call void @llvm.lifetime.end.p0(i64 16, ptr %21) #12
  call void @llvm.lifetime.end.p0(i64 16, ptr %20) #12
  call void @llvm.lifetime.end.p0(i64 16, ptr %19) #12
  call void @llvm.lifetime.end.p0(i64 16, ptr %18) #12
  call void @llvm.lifetime.end.p0(i64 16, ptr %17) #12
  call void @llvm.lifetime.end.p0(i64 8, ptr %16) #12
  call void @llvm.lifetime.end.p0(i64 8, ptr %15) #12
  %135 = load i32, ptr %22, align 4
  switch i32 %135, label %141 [
    i32 3, label %136
    i32 2, label %140
  ]

136:                                              ; preds = %134
  %137 = load ptr, ptr %14, align 8, !tbaa !21
  %138 = load ptr, ptr %13, align 8, !tbaa !21
  %139 = icmp ult ptr %137, %138
  br i1 %139, label %29, label %140, !llvm.loop !638

140:                                              ; preds = %136, %134
  call void @llvm.lifetime.end.p0(i64 8, ptr %14) #12
  call void @llvm.lifetime.end.p0(i64 8, ptr %13) #12
  ret void

141:                                              ; preds = %134
  unreachable
}