; Function Attrs: nounwind uwtable
define void @stbir__horizontal_gather_3_channels_with_4_coeffs(ptr noundef writeonly captures(address) %0, i32 noundef %1, ptr noundef %2, ptr noundef readonly captures(none) %3, ptr noundef readonly captures(none) %4, i32 noundef %5) #0 {
  %7 = mul i32 %1, 3
  %8 = zext i32 %7 to i64
  %9 = getelementptr inbounds nuw float, ptr %0, i64 %8
  %10 = sext i32 %5 to i64
  br label %11

11:                                               ; preds = %40, %6
  %.045 = phi ptr [ %0, %6 ], [ %34, %40 ]
  %.044 = phi ptr [ %4, %6 ], [ %42, %40 ]
  %.043 = phi ptr [ %3, %6 ], [ %41, %40 ]
  %12 = load i32, ptr %.043, align 4, !tbaa !34
  %13 = mul nsw i32 %12, 3
  %14 = sext i32 %13 to i64
  %15 = getelementptr inbounds float, ptr %2, i64 %14
  tail call void asm sideeffect "", "r,~{dirflag},~{fpsr},~{flags}"(ptr %15) #24, !srcloc !561
  %16 = load <4 x float>, ptr %.044, align 1, !tbaa !4
  %17 = shufflevector <4 x float> %16, <4 x float> poison, <4 x i32> <i32 0, i32 0, i32 0, i32 1>
  %18 = load <4 x float>, ptr %15, align 1, !tbaa !4
  %19 = fmul <4 x float> %18, %17
  %20 = shufflevector <4 x float> %16, <4 x float> poison, <4 x i32> <i32 1, i32 1, i32 2, i32 2>
  %21 = getelementptr inbounds nuw i8, ptr %15, i64 16
  %22 = load <4 x float>, ptr %21, align 1, !tbaa !4
  %23 = fmul <4 x float> %20, %22
  %24 = shufflevector <4 x float> %16, <4 x float> poison, <4 x i32> <i32 2, i32 3, i32 3, i32 3>
  %25 = getelementptr inbounds nuw i8, ptr %15, i64 32
  %26 = load <4 x float>, ptr %25, align 1, !tbaa !4
  %27 = fmul <4 x float> %24, %26
  %28 = shufflevector <4 x float> %19, <4 x float> %23, <4 x i32> <i32 3, i32 4, i32 5, i32 2>
  %29 = shufflevector <4 x float> %23, <4 x float> %27, <4 x i32> <i32 2, i32 3, i32 4, i32 5>
  %30 = shufflevector <4 x float> %27, <4 x float> poison, <4 x i32> <i32 1, i32 2, i32 3, i32 0>
  %31 = fadd <4 x float> %19, %29
  %32 = fadd <4 x float> %28, %30
  %33 = fadd <4 x float> %32, %31
  %34 = getelementptr inbounds nuw i8, ptr %.045, i64 12
  %35 = icmp ult ptr %34, %9
  br i1 %35, label %40, label %.thread

.thread:                                          ; preds = %11
  %36 = bitcast <4 x float> %33 to <2 x i64>
  %37 = extractelement <2 x i64> %36, i64 0
  store i64 %37, ptr %.045, align 1, !tbaa !4
  %38 = getelementptr inbounds nuw i8, ptr %.045, i64 8
  %39 = extractelement <4 x float> %33, i64 2
  store float %39, ptr %38, align 1, !tbaa !4
  ret void

40:                                               ; preds = %11
  %41 = getelementptr inbounds nuw i8, ptr %.043, i64 8
  %42 = getelementptr inbounds float, ptr %.044, i64 %10
  store <4 x float> %33, ptr %.045, align 1, !tbaa !4
  br label %11
}